V  $templateCache.put('/static/partials/dashboard.html', "<div ng-controller=\u005c"DashboardCtrl as ctrl\u005c">\u005cn  <h1>Welcome to Flask Bootstrap</h1>\u005cn  <h2>Controller: {{ctrl.title}}</h2>\u005cn</div>\u005cn");\u000a
p1
.